target datalayout = "e-m:e-p270:32:32-p271:32:32-p272:64:64-i64:64-i128:128-f80:128-n8:16:32:64-S128"
target triple = "x86_64-unknown-linux-gnu"

%"class.std::set.0" = type { %"class.std::_Rb_tree.1" }
%"class.std::_Rb_tree.1" = type { %"struct.std::_Rb_tree<QuantLib::Observer *, QuantLib::Observer *, std::_Identity<QuantLib::Observer *>, std::less<QuantLib::Observer *>>::_Rb_tree_impl" }
%"struct.std::_Rb_tree<QuantLib::Observer *, QuantLib::Observer *, std::_Identity<QuantLib::Observer *>, std::less<QuantLib::Observer *>>::_Rb_tree_impl" = type { [8 x i8], %"struct.std::_Rb_tree_header" }
%"struct.std::_Rb_tree_header" = type { %"struct.std::_Rb_tree_node_base", i64 }
%"struct.std::_Rb_tree_node_base" = type { i32, ptr, ptr, ptr }
%"class.QuantLib::Date" = type { i64 }
%"class.std::set" = type { %"class.std::_Rb_tree" }
%"class.std::_Rb_tree" = type { %"struct.std::_Rb_tree<boost::shared_ptr<QuantLib::Observable>, boost::shared_ptr<QuantLib::Observable>, std::_Identity<boost::shared_ptr<QuantLib::Observable>>, std::less<boost::shared_ptr<QuantLib::Observable>>>::_Rb_tree_impl" }
%"struct.std::_Rb_tree<boost::shared_ptr<QuantLib::Observable>, boost::shared_ptr<QuantLib::Observable>, std::_Identity<boost::shared_ptr<QuantLib::Observable>>, std::less<boost::shared_ptr<QuantLib::Observable>>>::_Rb_tree_impl" = type { [8 x i8], %"struct.std::_Rb_tree_header" }
%"class.QuantLib::Observable" = type { ptr, %"class.std::set.0" }
%"class.QuantLib::Observer" = type { ptr, %"class.std::set" }
%"class.QuantLib::(anonymous namespace)::ResettingLegCalculator" = type { %"class.QuantLib::AcyclicVisitor", %"class.QuantLib::Visitor.106", %"class.QuantLib::(anonymous namespace)::ResettingLegHelper", double, double }
%"class.QuantLib::AcyclicVisitor" = type { ptr }
%"class.QuantLib::Visitor.106" = type { ptr }
%"class.QuantLib::(anonymous namespace)::ResettingLegHelper" = type { ptr, ptr }
%"class.QuantLib::Coupon" = type { %"class.QuantLib::CashFlow.base", %"class.QuantLib::Date", double, %"class.QuantLib::Date", %"class.QuantLib::Date", %"class.QuantLib::Date", %"class.QuantLib::Date", %"class.QuantLib::Date", double, %"class.QuantLib::Observable", %"class.QuantLib::Observer" }
%"class.QuantLib::CashFlow.base" = type <{ %"class.QuantLib::Event.base", %"class.QuantLib::LazyObject.base" }>
%"class.QuantLib::Event.base" = type { ptr }
%"class.QuantLib::LazyObject.base" = type <{ ptr, i8, i8, i8, i8 }>

; Function Attrs: inlinehint mustprogress uwtable
define linkonce_odr noundef double @_ZNK8QuantLib18YieldTermStructure8discountERKNS_4DateEb(ptr noundef nonnull align 8 dereferenceable(152) %this, ptr noundef nonnull align 8 dereferenceable(8) %d, i1 noundef zeroext %extrapolate) #4 comdat align 2 {
entry:
  %this.addr = alloca ptr, align 8
  %d.addr = alloca ptr, align 8
  %extrapolate.addr = alloca i8, align 1
  store ptr %this, ptr %this.addr, align 8, !tbaa !3
  store ptr %d, ptr %d.addr, align 8, !tbaa !3
  %storedv = zext i1 %extrapolate to i8
  store i8 %storedv, ptr %extrapolate.addr, align 1, !tbaa !18
  %this1 = load ptr, ptr %this.addr, align 8
  %0 = load ptr, ptr %d.addr, align 8, !tbaa !3
  %call = call noundef double @_ZNK8QuantLib13TermStructure17timeFromReferenceERKNS_4DateE(ptr noundef nonnull align 8 dereferenceable(64) %this1, ptr noundef nonnull align 8 dereferenceable(8) %0)
  %1 = load i8, ptr %extrapolate.addr, align 1, !tbaa !18, !range !58, !noundef !59
  %loadedv = trunc i8 %1 to i1
  %call2 = call noundef double @_ZNK8QuantLib18YieldTermStructure8discountEdb(ptr noundef nonnull align 8 dereferenceable(152) %this1, double noundef %call, i1 noundef zeroext %loadedv)
  ret double %call2
}

; Function Attrs: mustprogress uwtable
define internal noundef double @_ZNK8QuantLib12_GLOBAL__N_118ResettingLegHelper8discountERKNS_4DateE(ptr noundef nonnull align 8 dereferenceable(16) %this, ptr noundef nonnull align 8 dereferenceable(8) %d) #2 align 2 {
entry:
  %this.addr = alloca ptr, align 8
  %d.addr = alloca ptr, align 8
  store ptr %this, ptr %this.addr, align 8, !tbaa !3
  store ptr %d, ptr %d.addr, align 8, !tbaa !3
  %this1 = load ptr, ptr %this.addr, align 8
  %discountCurve_ = getelementptr inbounds nuw %"class.QuantLib::(anonymous namespace)::ResettingLegHelper", ptr %this1, i32 0, i32 0
  %0 = load ptr, ptr %discountCurve_, align 8, !tbaa !178
  %1 = load ptr, ptr %d.addr, align 8, !tbaa !3
  %call = call noundef double @_ZNK8QuantLib18YieldTermStructure8discountERKNS_4DateEb(ptr noundef nonnull align 8 dereferenceable(152) %0, ptr noundef nonnull align 8 dereferenceable(8) %1, i1 noundef zeroext false)
  ret double %call
}

; Function Attrs: mustprogress uwtable
define internal noundef double @_ZNK8QuantLib12_GLOBAL__N_118ResettingLegHelper18notionalAdjustmentERKNS_4DateE(ptr noundef nonnull align 8 dereferenceable(16) %this, ptr noundef nonnull align 8 dereferenceable(8) %d) #2 align 2 {
entry:
  %this.addr = alloca ptr, align 8
  %d.addr = alloca ptr, align 8
  store ptr %this, ptr %this.addr, align 8, !tbaa !3
  store ptr %d, ptr %d.addr, align 8, !tbaa !3
  %this1 = load ptr, ptr %this.addr, align 8
  %foreignCurve_ = getelementptr inbounds nuw %"class.QuantLib::(anonymous namespace)::ResettingLegHelper", ptr %this1, i32 0, i32 1
  %0 = load ptr, ptr %foreignCurve_, align 8, !tbaa !177
  %1 = load ptr, ptr %d.addr, align 8, !tbaa !3
  %call = call noundef double @_ZNK8QuantLib18YieldTermStructure8discountERKNS_4DateEb(ptr noundef nonnull align 8 dereferenceable(152) %0, ptr noundef nonnull align 8 dereferenceable(8) %1, i1 noundef zeroext false)
  %discountCurve_ = getelementptr inbounds nuw %"class.QuantLib::(anonymous namespace)::ResettingLegHelper", ptr %this1, i32 0, i32 0
  %2 = load ptr, ptr %discountCurve_, align 8, !tbaa !178
  %3 = load ptr, ptr %d.addr, align 8, !tbaa !3
  %call2 = call noundef double @_ZNK8QuantLib18YieldTermStructure8discountERKNS_4DateEb(ptr noundef nonnull align 8 dereferenceable(152) %2, ptr noundef nonnull align 8 dereferenceable(8) %3, i1 noundef zeroext false)
  %div = fdiv double %call, %call2
  ret double %div
}

; Function Attrs: inlinehint mustprogress nounwind uwtable
define linkonce_odr noundef nonnull align 8 dereferenceable(8) ptr @_ZNK8QuantLib6Coupon14accrualEndDateEv(ptr noundef nonnull align 8 dereferenceable(88) %this) #5 comdat align 2 {
entry:
  %this.addr = alloca ptr, align 8
  store ptr %this, ptr %this.addr, align 8, !tbaa !3
  %this1 = load ptr, ptr %this.addr, align 8
  %accrualEndDate_ = getelementptr inbounds nuw %"class.QuantLib::Coupon", ptr %this1, i32 0, i32 4
  ret ptr %accrualEndDate_
}

; Function Attrs: inlinehint mustprogress nounwind uwtable
define linkonce_odr noundef nonnull align 8 dereferenceable(8) ptr @_ZNK8QuantLib6Coupon16accrualStartDateEv(ptr noundef nonnull align 8 dereferenceable(88) %this) #5 comdat align 2 {
entry:
  %this.addr = alloca ptr, align 8
  store ptr %this, ptr %this.addr, align 8, !tbaa !3
  %this1 = load ptr, ptr %this.addr, align 8
  %accrualStartDate_ = getelementptr inbounds nuw %"class.QuantLib::Coupon", ptr %this1, i32 0, i32 3
  ret ptr %accrualStartDate_
}

; Function Attrs: mustprogress uwtable
define internal void @_ZN8QuantLib12_GLOBAL__N_122ResettingLegCalculator5visitERNS_6CouponE(ptr noundef nonnull align 8 dereferenceable(48) %this, ptr noundef nonnull align 8 dereferenceable(88) %c) unnamed_addr #2 align 2 {
entry:
  %this.addr = alloca ptr, align 8
  %c.addr = alloca ptr, align 8
  %start = alloca %"class.QuantLib::Date", align 8
  %end = alloca %"class.QuantLib::Date", align 8
  %accrual = alloca double, align 8
  %adjustedNotional = alloca double, align 8
  %discountStart = alloca double, align 8
  %discountEnd = alloca double, align 8
  %npvRedeemedAmount = alloca double, align 8
  %npvBorrowedAmount = alloca double, align 8
  store ptr %this, ptr %this.addr, align 8, !tbaa !3
  store ptr %c, ptr %c.addr, align 8, !tbaa !3
  %this1 = load ptr, ptr %this.addr, align 8
  call void @llvm.lifetime.start.p0(i64 8, ptr %start) #12
  %0 = load ptr, ptr %c.addr, align 8, !tbaa !3
  %call = call noundef nonnull align 8 dereferenceable(8) ptr @_ZNK8QuantLib6Coupon16accrualStartDateEv(ptr noundef nonnull align 8 dereferenceable(88) %0)
  call void @llvm.memcpy.p0.p0.i64(ptr align 8 %start, ptr align 8 %call, i64 8, i1 false), !tbaa.struct !63
  call void @llvm.lifetime.start.p0(i64 8, ptr %end) #12
  %1 = load ptr, ptr %c.addr, align 8, !tbaa !3
  %call2 = call noundef nonnull align 8 dereferenceable(8) ptr @_ZNK8QuantLib6Coupon14accrualEndDateEv(ptr noundef nonnull align 8 dereferenceable(88) %1)
  call void @llvm.memcpy.p0.p0.i64(ptr align 8 %end, ptr align 8 %call2, i64 8, i1 false), !tbaa.struct !63
  call void @llvm.lifetime.start.p0(i64 8, ptr %accrual) #12
  %2 = load ptr, ptr %c.addr, align 8, !tbaa !3
  %call3 = call noundef double @_ZNK8QuantLib6Coupon13accrualPeriodEv(ptr noundef nonnull align 8 dereferenceable(88) %2)
  store double %call3, ptr %accrual, align 8, !tbaa !71
  call void @llvm.lifetime.start.p0(i64 8, ptr %adjustedNotional) #12
  %3 = load ptr, ptr %c.addr, align 8, !tbaa !3
  %vtable = load ptr, ptr %3, align 8, !tbaa !12
  %vfn = getelementptr inbounds ptr, ptr %vtable, i64 8
  %4 = load ptr, ptr %vfn, align 8
  %call4 = call noundef double %4(ptr noundef nonnull align 8 dereferenceable(88) %3)
  %helper_ = getelementptr inbounds nuw %"class.QuantLib::(anonymous namespace)::ResettingLegCalculator", ptr %this1, i32 0, i32 2
  %call5 = call noundef double @_ZNK8QuantLib12_GLOBAL__N_118ResettingLegHelper18notionalAdjustmentERKNS_4DateE(ptr noundef nonnull align 8 dereferenceable(16) %helper_, ptr noundef nonnull align 8 dereferenceable(8) %start)
  %mul = fmul double %call4, %call5
  store double %mul, ptr %adjustedNotional, align 8, !tbaa !71
  call void @llvm.lifetime.start.p0(i64 8, ptr %discountStart) #12
  %helper_6 = getelementptr inbounds nuw %"class.QuantLib::(anonymous namespace)::ResettingLegCalculator", ptr %this1, i32 0, i32 2
  %call7 = call noundef double @_ZNK8QuantLib12_GLOBAL__N_118ResettingLegHelper8discountERKNS_4DateE(ptr noundef nonnull align 8 dereferenceable(16) %helper_6, ptr noundef nonnull align 8 dereferenceable(8) %start)
  store double %call7, ptr %discountStart, align 8, !tbaa !71
  call void @llvm.lifetime.start.p0(i64 8, ptr %discountEnd) #12
  %helper_8 = getelementptr inbounds nuw %"class.QuantLib::(anonymous namespace)::ResettingLegCalculator", ptr %this1, i32 0, i32 2
  %call9 = call noundef double @_ZNK8QuantLib12_GLOBAL__N_118ResettingLegHelper8discountERKNS_4DateE(ptr noundef nonnull align 8 dereferenceable(16) %helper_8, ptr noundef nonnull align 8 dereferenceable(8) %end)
  store double %call9, ptr %discountEnd, align 8, !tbaa !71
  call void @llvm.lifetime.start.p0(i64 8, ptr %npvRedeemedAmount) #12
  %5 = load double, ptr %adjustedNotional, align 8, !tbaa !71
  %6 = load double, ptr %discountEnd, align 8, !tbaa !71
  %mul10 = fmul double %5, %6
  %7 = load ptr, ptr %c.addr, align 8, !tbaa !3
  %vtable11 = load ptr, ptr %7, align 8, !tbaa !12
  %vfn12 = getelementptr inbounds ptr, ptr %vtable11, i64 9
  %8 = load ptr, ptr %vfn12, align 8
  %call13 = call noundef double %8(ptr noundef nonnull align 8 dereferenceable(88) %7)
  %9 = load double, ptr %accrual, align 8, !tbaa !71
  %10 = call double @llvm.fmuladd.f64(double %call13, double %9, double 1.000000e+00)
  %mul15 = fmul double %mul10, %10
  store double %mul15, ptr %npvRedeemedAmount, align 8, !tbaa !71
  call void @llvm.lifetime.start.p0(i64 8, ptr %npvBorrowedAmount) #12
  %11 = load double, ptr %adjustedNotional, align 8, !tbaa !71
  %fneg = fneg double %11
  %12 = load double, ptr %discountStart, align 8, !tbaa !71
  %mul16 = fmul double %fneg, %12
  store double %mul16, ptr %npvBorrowedAmount, align 8, !tbaa !71
  %13 = load double, ptr %npvRedeemedAmount, align 8, !tbaa !71
  %14 = load double, ptr %npvBorrowedAmount, align 8, !tbaa !71
  %add = fadd double %13, %14
  %npv_ = getelementptr inbounds nuw %"class.QuantLib::(anonymous namespace)::ResettingLegCalculator", ptr %this1, i32 0, i32 3
  %15 = load double, ptr %npv_, align 8, !tbaa !167
  %add17 = fadd double %15, %add
  store double %add17, ptr %npv_, align 8, !tbaa !167
  %16 = load double, ptr %adjustedNotional, align 8, !tbaa !71
  %17 = load double, ptr %discountEnd, align 8, !tbaa !71
  %mul18 = fmul double %16, %17
  %18 = load double, ptr %accrual, align 8, !tbaa !71
  %bps_ = getelementptr inbounds nuw %"class.QuantLib::(anonymous namespace)::ResettingLegCalculator", ptr %this1, i32 0, i32 4
  %19 = load double, ptr %bps_, align 8, !tbaa !172
  %20 = call double @llvm.fmuladd.f64(double %mul18, double %18, double %19)
  store double %20, ptr %bps_, align 8, !tbaa !172
  call void @llvm.lifetime.end.p0(i64 8, ptr %npvBorrowedAmount) #12
  call void @llvm.lifetime.end.p0(i64 8, ptr %npvRedeemedAmount) #12
  call void @llvm.lifetime.end.p0(i64 8, ptr %discountEnd) #12
  call void @llvm.lifetime.end.p0(i64 8, ptr %discountStart) #12
  call void @llvm.lifetime.end.p0(i64 8, ptr %adjustedNotional) #12
  call void @llvm.lifetime.end.p0(i64 8, ptr %accrual) #12
  call void @llvm.lifetime.end.p0(i64 8, ptr %end) #12
  call void @llvm.lifetime.end.p0(i64 8, ptr %start) #12
  ret void
}