; Function Attrs: mustprogress uwtable
define internal void @_ZN8QuantLib12_GLOBAL__N_122ResettingLegCalculator5visitERNS_6CouponE(ptr nocapture noundef nonnull align 8 dereferenceable(48) %this, ptr noundef nonnull align 8 dereferenceable(88) %c) unnamed_addr #7 align 2 {
entry:
  %start = alloca %"class.QuantLib::Date", align 8
  %end = alloca %"class.QuantLib::Date", align 8
  call void @llvm.lifetime.start.p0(i64 8, ptr nonnull %start) #28
  %accrualStartDate_.i = getelementptr inbounds nuw i8, ptr %c, i64 40
  %0 = load i64, ptr %accrualStartDate_.i, align 8, !tbaa !30
  store i64 %0, ptr %start, align 8, !tbaa !30
  call void @llvm.lifetime.start.p0(i64 8, ptr nonnull %end) #28
  %accrualEndDate_.i = getelementptr inbounds nuw i8, ptr %c, i64 48
  %1 = load i64, ptr %accrualEndDate_.i, align 8, !tbaa !30
  store i64 %1, ptr %end, align 8, !tbaa !30
  %call3 = tail call noundef double @_ZNK8QuantLib6Coupon13accrualPeriodEv(ptr noundef nonnull align 8 dereferenceable(88) %c)
  %vtable = load ptr, ptr %c, align 8, !tbaa !35
  %vfn = getelementptr inbounds i8, ptr %vtable, i64 64
  %2 = load ptr, ptr %vfn, align 8
  %call4 = tail call noundef double %2(ptr noundef nonnull align 8 dereferenceable(88) %c)
  %helper_ = getelementptr inbounds nuw i8, ptr %this, i64 16
  %foreignCurve_.i = getelementptr inbounds nuw i8, ptr %this, i64 24
  %3 = load ptr, ptr %foreignCurve_.i, align 8, !tbaa !156
  %call.i.i = call noundef double @_ZNK8QuantLib13TermStructure17timeFromReferenceERKNS_4DateE(ptr noundef nonnull align 8 dereferenceable(64) %3, ptr noundef nonnull align 8 dereferenceable(8) %start)
  %call2.i.i = call noundef double @_ZNK8QuantLib18YieldTermStructure8discountEdb(ptr noundef nonnull align 8 dereferenceable(152) %3, double noundef %call.i.i, i1 noundef zeroext false)
  %4 = load ptr, ptr %helper_, align 8, !tbaa !157
  %call.i2.i = call noundef double @_ZNK8QuantLib13TermStructure17timeFromReferenceERKNS_4DateE(ptr noundef nonnull align 8 dereferenceable(64) %4, ptr noundef nonnull align 8 dereferenceable(8) %start)
  %call2.i3.i = call noundef double @_ZNK8QuantLib18YieldTermStructure8discountEdb(ptr noundef nonnull align 8 dereferenceable(152) %4, double noundef %call.i2.i, i1 noundef zeroext false)
  %div.i = fdiv double %call2.i.i, %call2.i3.i
  %mul = fmul double %call4, %div.i
  %helper_.val = load ptr, ptr %helper_, align 8, !tbaa !157
  %call.i.i10 = call noundef double @_ZNK8QuantLib13TermStructure17timeFromReferenceERKNS_4DateE(ptr noundef nonnull align 8 dereferenceable(64) %helper_.val, ptr noundef nonnull align 8 dereferenceable(8) %start)
  %call2.i.i11 = call noundef double @_ZNK8QuantLib18YieldTermStructure8discountEdb(ptr noundef nonnull align 8 dereferenceable(152) %helper_.val, double noundef %call.i.i10, i1 noundef zeroext false)
  %helper_.val9 = load ptr, ptr %helper_, align 8, !tbaa !157
  %call.i.i12 = call noundef double @_ZNK8QuantLib13TermStructure17timeFromReferenceERKNS_4DateE(ptr noundef nonnull align 8 dereferenceable(64) %helper_.val9, ptr noundef nonnull align 8 dereferenceable(8) %end)
  %call2.i.i13 = call noundef double @_ZNK8QuantLib18YieldTermStructure8discountEdb(ptr noundef nonnull align 8 dereferenceable(152) %helper_.val9, double noundef %call.i.i12, i1 noundef zeroext false)
  %mul10 = fmul double %mul, %call2.i.i13
  %vtable11 = load ptr, ptr %c, align 8, !tbaa !35
  %vfn12 = getelementptr inbounds i8, ptr %vtable11, i64 72
  %5 = load ptr, ptr %vfn12, align 8
  %call13 = call noundef double %5(ptr noundef nonnull align 8 dereferenceable(88) %c)
  %6 = call double @llvm.fmuladd.f64(double %call13, double %call3, double 1.000000e+00)
  %mul15 = fmul double %mul10, %6
  %7 = fmul double %mul, %call2.i.i11
  %add = fsub double %mul15, %7
  %npv_ = getelementptr inbounds nuw i8, ptr %this, i64 32
  %8 = load double, ptr %npv_, align 8, !tbaa !127
  %add17 = fadd double %8, %add
  store double %add17, ptr %npv_, align 8, !tbaa !127
  %bps_ = getelementptr inbounds nuw i8, ptr %this, i64 40
  %9 = load double, ptr %bps_, align 8, !tbaa !133
  %10 = call double @llvm.fmuladd.f64(double %mul10, double %call3, double %9)
  store double %10, ptr %bps_, align 8, !tbaa !133
  call void @llvm.lifetime.end.p0(i64 8, ptr nonnull %end) #28
  call void @llvm.lifetime.end.p0(i64 8, ptr nonnull %start) #28
  ret void
}